; ModuleID = '36/104.c'
source_filename = "36/104.c"
target datalayout = "e-m:e-p270:32:32-p271:32:32-p272:64:64-i64:64-f80:128-n8:16:32:64-S128"
target triple = "x86_64-pc-linux-gnu"

@.str = private unnamed_addr constant [5 x i8] c"%s%s\00", align 1
@.str.1 = private unnamed_addr constant [4 x i8] c"YES\00", align 1
@.str.2 = private unnamed_addr constant [3 x i8] c"NO\00", align 1

; Function Attrs: noinline nounwind uwtable
define dso_local void @main() #0 {
  %1 = alloca i32, align 4
  %2 = alloca i32, align 4
  %3 = alloca [40 x i8], align 16
  %4 = alloca [40 x i8], align 16
  %5 = alloca i8*, align 8
  %6 = alloca i8*, align 8
  %7 = alloca i8, align 1
  %8 = getelementptr inbounds [40 x i8], [40 x i8]* %3, i64 0, i64 0
  %9 = getelementptr inbounds [40 x i8], [40 x i8]* %4, i64 0, i64 0
  %10 = call i32 (i8*, ...) @__isoc99_scanf(i8* getelementptr inbounds ([5 x i8], [5 x i8]* @.str, i64 0, i64 0), i8* %8, i8* %9)
  %11 = getelementptr inbounds [40 x i8], [40 x i8]* %3, i64 0, i64 0
  store i8* %11, i8** %5, align 8
  %12 = getelementptr inbounds [40 x i8], [40 x i8]* %4, i64 0, i64 0
  store i8* %12, i8** %6, align 8
  store i32 0, i32* %1, align 4
  br label %13

13:                                               ; preds = %66, %0
  %14 = load i32, i32* %1, align 4
  %15 = sext i32 %14 to i64
  %16 = getelementptr inbounds [40 x i8], [40 x i8]* %3, i64 0, i64 0
  %17 = call i64 @strlen(i8* %16) #3
  %18 = icmp ult i64 %15, %17
  br i1 %18, label %19, label %69

19:                                               ; preds = %13
  %20 = load i32, i32* %1, align 4
  store i32 %20, i32* %2, align 4
  br label %21

21:                                               ; preds = %62, %19
  %22 = load i32, i32* %2, align 4
  %23 = sext i32 %22 to i64
  %24 = getelementptr inbounds [40 x i8], [40 x i8]* %3, i64 0, i64 0
  %25 = call i64 @strlen(i8* %24) #3
  %26 = icmp ult i64 %23, %25
  br i1 %26, label %27, label %65

27:                                               ; preds = %21
  %28 = load i8*, i8** %5, align 8
  %29 = load i32, i32* %1, align 4
  %30 = sext i32 %29 to i64
  %31 = getelementptr inbounds i8, i8* %28, i64 %30
  %32 = load i8, i8* %31, align 1
  %33 = sext i8 %32 to i32
  %34 = load i8*, i8** %5, align 8
  %35 = load i32, i32* %2, align 4
  %36 = sext i32 %35 to i64
  %37 = getelementptr inbounds i8, i8* %34, i64 %36
  %38 = load i8, i8* %37, align 1
  %39 = sext i8 %38 to i32
  %40 = icmp slt i32 %33, %39
  br i1 %40, label %41, label %61

41:                                               ; preds = %27
  %42 = load i8*, i8** %5, align 8
  %43 = load i32, i32* %1, align 4
  %44 = sext i32 %43 to i64
  %45 = getelementptr inbounds i8, i8* %42, i64 %44
  %46 = load i8, i8* %45, align 1
  store i8 %46, i8* %7, align 1
  %47 = load i8*, i8** %5, align 8
  %48 = load i32, i32* %2, align 4
  %49 = sext i32 %48 to i64
  %50 = getelementptr inbounds i8, i8* %47, i64 %49
  %51 = load i8, i8* %50, align 1
  %52 = load i8*, i8** %5, align 8
  %53 = load i32, i32* %1, align 4
  %54 = sext i32 %53 to i64
  %55 = getelementptr inbounds i8, i8* %52, i64 %54
  store i8 %51, i8* %55, align 1
  %56 = load i8, i8* %7, align 1
  %57 = load i8*, i8** %5, align 8
  %58 = load i32, i32* %2, align 4
  %59 = sext i32 %58 to i64
  %60 = getelementptr inbounds i8, i8* %57, i64 %59
  store i8 %56, i8* %60, align 1
  br label %61

61:                                               ; preds = %41, %27
  br label %62

62:                                               ; preds = %61
  %63 = load i32, i32* %2, align 4
  %64 = add nsw i32 %63, 1
  store i32 %64, i32* %2, align 4
  br label %21

65:                                               ; preds = %21
  br label %66

66:                                               ; preds = %65
  %67 = load i32, i32* %1, align 4
  %68 = add nsw i32 %67, 1
  store i32 %68, i32* %1, align 4
  br label %13

69:                                               ; preds = %13
  store i32 0, i32* %1, align 4
  br label %70

70:                                               ; preds = %123, %69
  %71 = load i32, i32* %1, align 4
  %72 = sext i32 %71 to i64
  %73 = getelementptr inbounds [40 x i8], [40 x i8]* %4, i64 0, i64 0
  %74 = call i64 @strlen(i8* %73) #3
  %75 = icmp ult i64 %72, %74
  br i1 %75, label %76, label %126

76:                                               ; preds = %70
  %77 = load i32, i32* %1, align 4
  store i32 %77, i32* %2, align 4
  br label %78

78:                                               ; preds = %119, %76
  %79 = load i32, i32* %2, align 4
  %80 = sext i32 %79 to i64
  %81 = getelementptr inbounds [40 x i8], [40 x i8]* %4, i64 0, i64 0
  %82 = call i64 @strlen(i8* %81) #3
  %83 = icmp ult i64 %80, %82
  br i1 %83, label %84, label %122

84:                                               ; preds = %78
  %85 = load i8*, i8** %6, align 8
  %86 = load i32, i32* %1, align 4
  %87 = sext i32 %86 to i64
  %88 = getelementptr inbounds i8, i8* %85, i64 %87
  %89 = load i8, i8* %88, align 1
  %90 = sext i8 %89 to i32
  %91 = load i8*, i8** %6, align 8
  %92 = load i32, i32* %2, align 4
  %93 = sext i32 %92 to i64
  %94 = getelementptr inbounds i8, i8* %91, i64 %93
  %95 = load i8, i8* %94, align 1
  %96 = sext i8 %95 to i32
  %97 = icmp slt i32 %90, %96
  br i1 %97, label %98, label %118

98:                                               ; preds = %84
  %99 = load i8*, i8** %6, align 8
  %100 = load i32, i32* %1, align 4
  %101 = sext i32 %100 to i64
  %102 = getelementptr inbounds i8, i8* %99, i64 %101
  %103 = load i8, i8* %102, align 1
  store i8 %103, i8* %7, align 1
  %104 = load i8*, i8** %6, align 8
  %105 = load i32, i32* %2, align 4
  %106 = sext i32 %105 to i64
  %107 = getelementptr inbounds i8, i8* %104, i64 %106
  %108 = load i8, i8* %107, align 1
  %109 = load i8*, i8** %6, align 8
  %110 = load i32, i32* %1, align 4
  %111 = sext i32 %110 to i64
  %112 = getelementptr inbounds i8, i8* %109, i64 %111
  store i8 %108, i8* %112, align 1
  %113 = load i8, i8* %7, align 1
  %114 = load i8*, i8** %6, align 8
  %115 = load i32, i32* %2, align 4
  %116 = sext i32 %115 to i64
  %117 = getelementptr inbounds i8, i8* %114, i64 %116
  store i8 %113, i8* %117, align 1
  br label %118

118:                                              ; preds = %98, %84
  br label %119

119:                                              ; preds = %118
  %120 = load i32, i32* %2, align 4
  %121 = add nsw i32 %120, 1
  store i32 %121, i32* %2, align 4
  br label %78

122:                                              ; preds = %78
  br label %123

123:                                              ; preds = %122
  %124 = load i32, i32* %1, align 4
  %125 = add nsw i32 %124, 1
  store i32 %125, i32* %1, align 4
  br label %70

126:                                              ; preds = %70
  %127 = getelementptr inbounds [40 x i8], [40 x i8]* %3, i64 0, i64 0
  %128 = getelementptr inbounds [40 x i8], [40 x i8]* %4, i64 0, i64 0
  %129 = call i32 @strcmp(i8* %127, i8* %128) #3
  %130 = icmp eq i32 %129, 0
  br i1 %130, label %131, label %133

131:                                              ; preds = %126
  %132 = call i32 (i8*, ...) @printf(i8* getelementptr inbounds ([4 x i8], [4 x i8]* @.str.1, i64 0, i64 0))
  br label %135

133:                                              ; preds = %126
  %134 = call i32 (i8*, ...) @printf(i8* getelementptr inbounds ([3 x i8], [3 x i8]* @.str.2, i64 0, i64 0))
  br label %135

135:                                              ; preds = %133, %131
  ret void
}

declare dso_local i32 @__isoc99_scanf(i8*, ...) #1

; Function Attrs: nounwind readonly
declare dso_local i64 @strlen(i8*) #2

; Function Attrs: nounwind readonly
declare dso_local i32 @strcmp(i8*, i8*) #2

declare dso_local i32 @printf(i8*, ...) #1


!llvm.module.flags = !{!0}
!llvm.ident = !{!1}

!0 = !{i32 1, !"wchar_size", i32 4}
!1 = !{!"clang version 10.0.0-4ubuntu1 "}
