; ModuleID = 'source-C-CXX/35/104.c'
source_filename = "source-C-CXX/35/104.c"
target datalayout = "e-m:e-p270:32:32-p271:32:32-p272:64:64-i64:64-f80:128-n8:16:32:64-S128"
target triple = "x86_64-pc-linux-gnu"

@.str = private unnamed_addr constant [5 x i8] c"%s%s\00", align 1
@.str.1 = private unnamed_addr constant [4 x i8] c"YES\00", align 1
@.str.2 = private unnamed_addr constant [3 x i8] c"NO\00", align 1

; Function Attrs: nofree nounwind sspstrong uwtable
define dso_local void @main() local_unnamed_addr #0 {
  %1 = alloca [40 x i8], align 16
  %2 = alloca [40 x i8], align 16
  %3 = getelementptr inbounds [40 x i8], [40 x i8]* %1, i64 0, i64 0
  call void @llvm.lifetime.start.p0i8(i64 40, i8* nonnull %3) #4
  %4 = getelementptr inbounds [40 x i8], [40 x i8]* %2, i64 0, i64 0
  call void @llvm.lifetime.start.p0i8(i64 40, i8* nonnull %4) #4
  %5 = call i32 (i8*, ...) @__isoc99_scanf(i8* getelementptr inbounds ([5 x i8], [5 x i8]* @.str, i64 0, i64 0), i8* nonnull %3, i8* nonnull %4)
  %6 = load i8, i8* %3, align 16
  %7 = icmp eq i8 %6, 0
  br i1 %7, label %13, label %8

8:                                                ; preds = %0, %27
  %9 = phi i64 [ %28, %27 ], [ 0, %0 ]
  %10 = getelementptr inbounds [40 x i8], [40 x i8]* %1, i64 0, i64 %9
  %11 = call i64 @strlen(i8* noundef nonnull %3) #5
  %12 = icmp ugt i64 %11, %9
  br i1 %12, label %16, label %27

13:                                               ; preds = %27, %0
  %14 = load i8, i8* %4, align 16
  %15 = icmp eq i8 %14, 0
  br i1 %15, label %51, label %31

16:                                               ; preds = %8, %23
  %17 = phi i64 [ %24, %23 ], [ %9, %8 ]
  %18 = load i8, i8* %10, align 1, !tbaa !5
  %19 = getelementptr inbounds [40 x i8], [40 x i8]* %1, i64 0, i64 %17
  %20 = load i8, i8* %19, align 1, !tbaa !5
  %21 = icmp slt i8 %18, %20
  br i1 %21, label %22, label %23

22:                                               ; preds = %16
  store i8 %20, i8* %10, align 1, !tbaa !5
  store i8 %18, i8* %19, align 1, !tbaa !5
  br label %23

23:                                               ; preds = %16, %22
  %24 = add nuw nsw i64 %17, 1
  %25 = call i64 @strlen(i8* noundef nonnull %3) #5
  %26 = icmp ugt i64 %25, %24
  br i1 %26, label %16, label %27, !llvm.loop !8

27:                                               ; preds = %23, %8
  %28 = add nuw nsw i64 %9, 1
  %29 = call i64 @strlen(i8* noundef nonnull %3) #5
  %30 = icmp ugt i64 %29, %28
  br i1 %30, label %8, label %13, !llvm.loop !10

31:                                               ; preds = %13, %47
  %32 = phi i64 [ %48, %47 ], [ 0, %13 ]
  %33 = getelementptr inbounds [40 x i8], [40 x i8]* %2, i64 0, i64 %32
  %34 = call i64 @strlen(i8* noundef nonnull %4) #5
  %35 = icmp ugt i64 %34, %32
  br i1 %35, label %36, label %47

36:                                               ; preds = %31, %43
  %37 = phi i64 [ %44, %43 ], [ %32, %31 ]
  %38 = load i8, i8* %33, align 1, !tbaa !5
  %39 = getelementptr inbounds [40 x i8], [40 x i8]* %2, i64 0, i64 %37
  %40 = load i8, i8* %39, align 1, !tbaa !5
  %41 = icmp slt i8 %38, %40
  br i1 %41, label %42, label %43

42:                                               ; preds = %36
  store i8 %40, i8* %33, align 1, !tbaa !5
  store i8 %38, i8* %39, align 1, !tbaa !5
  br label %43

43:                                               ; preds = %36, %42
  %44 = add nuw nsw i64 %37, 1
  %45 = call i64 @strlen(i8* noundef nonnull %4) #5
  %46 = icmp ugt i64 %45, %44
  br i1 %46, label %36, label %47, !llvm.loop !11

47:                                               ; preds = %43, %31
  %48 = add nuw nsw i64 %32, 1
  %49 = call i64 @strlen(i8* noundef nonnull %4) #5
  %50 = icmp ugt i64 %49, %48
  br i1 %50, label %31, label %51, !llvm.loop !12

51:                                               ; preds = %47, %13
  %52 = call i32 @strcmp(i8* noundef nonnull %3, i8* noundef nonnull %4) #5
  %53 = icmp eq i32 %52, 0
  %54 = select i1 %53, i8* getelementptr inbounds ([4 x i8], [4 x i8]* @.str.1, i64 0, i64 0), i8* getelementptr inbounds ([3 x i8], [3 x i8]* @.str.2, i64 0, i64 0)
  %55 = call i32 (i8*, ...) @printf(i8* nonnull dereferenceable(1) %54)
  call void @llvm.lifetime.end.p0i8(i64 40, i8* nonnull %4) #4
  call void @llvm.lifetime.end.p0i8(i64 40, i8* nonnull %3) #4
  ret void
}

; Function Attrs: argmemonly mustprogress nofree nosync nounwind willreturn
declare void @llvm.lifetime.start.p0i8(i64 immarg, i8* nocapture) #1

; Function Attrs: nofree nounwind
declare noundef i32 @__isoc99_scanf(i8* nocapture noundef readonly, ...) local_unnamed_addr #2

; Function Attrs: argmemonly mustprogress nofree nounwind readonly willreturn
declare i64 @strlen(i8* nocapture) local_unnamed_addr #3

; Function Attrs: argmemonly mustprogress nofree nounwind readonly willreturn
declare i32 @strcmp(i8* nocapture, i8* nocapture) local_unnamed_addr #3

; Function Attrs: nofree nounwind
declare noundef i32 @printf(i8* nocapture noundef readonly, ...) local_unnamed_addr #2

; Function Attrs: argmemonly mustprogress nofree nosync nounwind willreturn
declare void @llvm.lifetime.end.p0i8(i64 immarg, i8* nocapture) #1


!llvm.module.flags = !{!0, !1, !2, !3}
!llvm.ident = !{!4}

!0 = !{i32 1, !"wchar_size", i32 4}
!1 = !{i32 7, !"PIC Level", i32 2}
!2 = !{i32 7, !"PIE Level", i32 2}
!3 = !{i32 7, !"uwtable", i32 1}
!4 = !{!"clang version 13.0.0"}
!5 = !{!6, !6, i64 0}
!6 = !{!"omnipotent char", !7, i64 0}
!7 = !{!"Simple C/C++ TBAA"}
!8 = distinct !{!8, !9}
!9 = !{!"llvm.loop.mustprogress"}
!10 = distinct !{!10, !9}
!11 = distinct !{!11, !9}
!12 = distinct !{!12, !9}
